; Function Attrs: nounwind uwtable
define dso_local noundef ptr @makeJsonKeyValue(ptr noundef %0, ptr noundef %1) local_unnamed_addr #0 {
  %3 = tail call noundef ptr @palloc0(i64 noundef 24) #7
  store i32 126, ptr %3, align 4
  %4 = getelementptr inbounds nuw i8, ptr %3, i64 8
  store ptr %0, ptr %4, align 8
  %5 = getelementptr inbounds nuw i8, ptr %3, i64 16
  store ptr %1, ptr %5, align 8
  ret ptr %3
}